target datalayout = "e-m:e-p270:32:32-p271:32:32-p272:64:64-i64:64-i128:128-f80:128-n8:16:32:64-S128"
target triple = "x86_64-pc-linux-gnu"

%struct._object = type { %union.anon, ptr }
%union.anon = type { i64 }
%struct._err_stackitem = type { ptr, ptr }
%union._PyStackRef = type { i64 }
%struct._PyGenObject = type { %struct._object, ptr, ptr, ptr, %struct._err_stackitem, ptr, i8, i8, i8, i8, %struct._PyInterpreterFrame }
%struct._PyInterpreterFrame = type { %union._PyStackRef, ptr, %union._PyStackRef, ptr, ptr, ptr, ptr, ptr, ptr, i16, i8, i8, [1 x %union._PyStackRef] }
%struct.anon = type { i32, i32 }

@_Py_NoneStruct = external global %struct._object, align 8
@.str.47 = private unnamed_addr constant [19 x i8] c"object.__getattr__\00", align 1
@.str.48 = private unnamed_addr constant [3 x i8] c"Os\00", align 1
@.str.74 = private unnamed_addr constant [9 x i8] c"ag_frame\00", align 1

; Function Attrs: alwaysinline nounwind uwtable
define internal void @Py_INCREF(ptr noundef %0) #3 {
  %2 = alloca ptr, align 8
  %3 = alloca i32, align 4
  %4 = alloca i32, align 4
  store ptr %0, ptr %2, align 8, !tbaa !11
  call void @llvm.lifetime.start.p0(i64 4, ptr %3) #7
  %5 = load ptr, ptr %2, align 8, !tbaa !11
  %6 = getelementptr inbounds nuw %struct._object, ptr %5, i32 0, i32 0
  %7 = getelementptr inbounds nuw %struct.anon, ptr %6, i32 0, i32 0
  %8 = load i32, ptr %7, align 8, !tbaa !13
  store i32 %8, ptr %3, align 4, !tbaa !14
  %9 = load i32, ptr %3, align 4, !tbaa !14
  %10 = icmp slt i32 %9, 0
  br i1 %10, label %11, label %12

11:                                               ; preds = %1
  store i32 1, ptr %4, align 4
  br label %18

12:                                               ; preds = %1
  %13 = load i32, ptr %3, align 4, !tbaa !14
  %14 = add i32 %13, 1
  %15 = load ptr, ptr %2, align 8, !tbaa !11
  %16 = getelementptr inbounds nuw %struct._object, ptr %15, i32 0, i32 0
  %17 = getelementptr inbounds nuw %struct.anon, ptr %16, i32 0, i32 0
  store i32 %14, ptr %17, align 8, !tbaa !13
  store i32 0, ptr %4, align 4
  br label %18

18:                                               ; preds = %12, %11
  call void @llvm.lifetime.end.p0(i64 4, ptr %3) #7
  %19 = load i32, ptr %4, align 4
  switch i32 %19, label %21 [
    i32 0, label %20
    i32 1, label %20
  ]

20:                                               ; preds = %18, %18
  ret void

21:                                               ; preds = %18
  unreachable
}

; Function Attrs: inlinehint nounwind uwtable
define internal void @Py_XINCREF(ptr noundef %0) #2 {
  %2 = alloca ptr, align 8
  store ptr %0, ptr %2, align 8, !tbaa !11
  %3 = load ptr, ptr %2, align 8, !tbaa !11
  %4 = icmp ne ptr %3, null
  br i1 %4, label %5, label %7

5:                                                ; preds = %1
  %6 = load ptr, ptr %2, align 8, !tbaa !11
  call void @Py_INCREF(ptr noundef %6)
  br label %7

7:                                                ; preds = %5, %1
  ret void
}

; Function Attrs: inlinehint nounwind uwtable
define internal ptr @_Py_XNewRef(ptr noundef %0) #2 {
  %2 = alloca ptr, align 8
  store ptr %0, ptr %2, align 8, !tbaa !11
  %3 = load ptr, ptr %2, align 8, !tbaa !11
  call void @Py_XINCREF(ptr noundef %3)
  %4 = load ptr, ptr %2, align 8, !tbaa !11
  ret ptr %4
}

; Function Attrs: inlinehint nounwind uwtable
define internal ptr @_PyFrame_GetFrameObject(ptr noundef %0) #2 {
  %2 = alloca ptr, align 8
  %3 = alloca ptr, align 8
  %4 = alloca ptr, align 8
  %5 = alloca i32, align 4
  store ptr %0, ptr %3, align 8, !tbaa !37
  call void @llvm.lifetime.start.p0(i64 8, ptr %4) #7
  %6 = load ptr, ptr %3, align 8, !tbaa !37
  %7 = getelementptr inbounds nuw %struct._PyInterpreterFrame, ptr %6, i32 0, i32 6
  %8 = load ptr, ptr %7, align 8, !tbaa !201
  store ptr %8, ptr %4, align 8, !tbaa !77
  %9 = load ptr, ptr %4, align 8, !tbaa !77
  %10 = icmp ne ptr %9, null
  br i1 %10, label %11, label %13

11:                                               ; preds = %1
  %12 = load ptr, ptr %4, align 8, !tbaa !77
  store ptr %12, ptr %2, align 8
  store i32 1, ptr %5, align 4
  br label %16

13:                                               ; preds = %1
  %14 = load ptr, ptr %3, align 8, !tbaa !37
  %15 = call ptr @_PyFrame_MakeAndSetFrameObject(ptr noundef %14)
  store ptr %15, ptr %2, align 8
  store i32 1, ptr %5, align 4
  br label %16

16:                                               ; preds = %13, %11
  call void @llvm.lifetime.end.p0(i64 8, ptr %4) #7
  %17 = load ptr, ptr %2, align 8
  ret ptr %17
}

; Function Attrs: nounwind uwtable
define internal ptr @_gen_getframe(ptr noundef %0, ptr noundef %1) #0 {
  %3 = alloca ptr, align 8
  %4 = alloca ptr, align 8
  %5 = alloca ptr, align 8
  store ptr %0, ptr %4, align 8, !tbaa !4
  store ptr %1, ptr %5, align 8, !tbaa !39
  %6 = load ptr, ptr %4, align 8, !tbaa !4
  %7 = load ptr, ptr %5, align 8, !tbaa !39
  %8 = call i32 (ptr, ptr, ...) @PySys_Audit(ptr noundef @.str.47, ptr noundef @.str.48, ptr noundef %6, ptr noundef %7)
  %9 = icmp slt i32 %8, 0
  br i1 %9, label %10, label %11

10:                                               ; preds = %2
  store ptr null, ptr %3, align 8
  br label %23

11:                                               ; preds = %2
  %12 = load ptr, ptr %4, align 8, !tbaa !4
  %13 = getelementptr inbounds nuw %struct._PyGenObject, ptr %12, i32 0, i32 9
  %14 = load i8, ptr %13, align 1, !tbaa !16
  %15 = sext i8 %14 to i32
  %16 = icmp sge i32 %15, 1
  br i1 %16, label %17, label %18

17:                                               ; preds = %11
  store ptr @_Py_NoneStruct, ptr %3, align 8
  br label %23

18:                                               ; preds = %11
  %19 = load ptr, ptr %4, align 8, !tbaa !4
  %20 = getelementptr inbounds nuw %struct._PyGenObject, ptr %19, i32 0, i32 10
  %21 = call ptr @_PyFrame_GetFrameObject(ptr noundef %20)
  %22 = call ptr @_Py_XNewRef(ptr noundef %21)
  store ptr %22, ptr %3, align 8
  br label %23

23:                                               ; preds = %18, %17, %10
  %24 = load ptr, ptr %3, align 8
  ret ptr %24
}

; Function Attrs: nounwind uwtable
define internal ptr @ag_getframe(ptr noundef %0, ptr noundef %1) #0 {
  %3 = alloca ptr, align 8
  %4 = alloca ptr, align 8
  store ptr %0, ptr %3, align 8, !tbaa !11
  store ptr %1, ptr %4, align 8, !tbaa !50
  %5 = load ptr, ptr %3, align 8, !tbaa !11
  %6 = call ptr @_gen_getframe(ptr noundef %5, ptr noundef @.str.74)
  ret ptr %6
}