; Function Attrs: nounwind uwtable
define internal noundef ptr @ag_getframe(ptr noundef %0, ptr readnone captures(none) %1) #2 {
  %3 = tail call i32 (ptr, ptr, ...) @PySys_Audit(ptr noundef nonnull @.str.47, ptr noundef nonnull @.str.48, ptr noundef %0, ptr noundef nonnull @.str.74) #8
  %4 = icmp slt i32 %3, 0
  br i1 %4, label %_gen_getframe.exit, label %5

5:                                                ; preds = %2
  %6 = getelementptr inbounds nuw i8, ptr %0, i64 67
  %7 = load i8, ptr %6, align 1, !tbaa !7
  %8 = icmp sgt i8 %7, 0
  br i1 %8, label %_gen_getframe.exit, label %9

9:                                                ; preds = %5
  %10 = getelementptr inbounds nuw i8, ptr %0, i64 120
  %11 = load ptr, ptr %10, align 8, !tbaa !182
  %.not.i.i = icmp eq ptr %11, null
  br i1 %.not.i.i, label %_PyFrame_GetFrameObject.exit.i, label %_PyFrame_GetFrameObject.exit.thread.i

_PyFrame_GetFrameObject.exit.i:                   ; preds = %9
  %12 = getelementptr inbounds nuw i8, ptr %0, i64 72
  %13 = tail call ptr @_PyFrame_MakeAndSetFrameObject(ptr noundef nonnull %12) #8
  %.not.i.i.i = icmp eq ptr %13, null
  br i1 %.not.i.i.i, label %_gen_getframe.exit, label %_PyFrame_GetFrameObject.exit.thread.i

_PyFrame_GetFrameObject.exit.thread.i:            ; preds = %_PyFrame_GetFrameObject.exit.i, %9
  %.0.i7.i = phi ptr [ %13, %_PyFrame_GetFrameObject.exit.i ], [ %11, %9 ]
  %14 = load i32, ptr %.0.i7.i, align 8, !tbaa !4
  %15 = icmp slt i32 %14, 0
  br i1 %15, label %_gen_getframe.exit, label %16

16:                                               ; preds = %_PyFrame_GetFrameObject.exit.thread.i
  %17 = add nuw i32 %14, 1
  store i32 %17, ptr %.0.i7.i, align 8, !tbaa !4
  br label %_gen_getframe.exit

_gen_getframe.exit:                               ; preds = %2, %5, %_PyFrame_GetFrameObject.exit.i, %_PyFrame_GetFrameObject.exit.thread.i, %16
  %.0.i = phi ptr [ null, %2 ], [ @_Py_NoneStruct, %5 ], [ null, %_PyFrame_GetFrameObject.exit.i ], [ %.0.i7.i, %_PyFrame_GetFrameObject.exit.thread.i ], [ %.0.i7.i, %16 ]
  ret ptr %.0.i
}